
Drivers.elf:     file format elf32-littlearm


Disassembly of section .isr_vector:

08000000 <g_pfnVectors>:
 8000000:	20002800 	andcs	r2, r0, r0, lsl #16
 8000004:	08000215 	stmdaeq	r0, {r0, r2, r4, r9}
 8000008:	08000265 	stmdaeq	r0, {r0, r2, r5, r6, r9}
 800000c:	08000265 	stmdaeq	r0, {r0, r2, r5, r6, r9}
 8000010:	08000265 	stmdaeq	r0, {r0, r2, r5, r6, r9}
 8000014:	08000265 	stmdaeq	r0, {r0, r2, r5, r6, r9}
 8000018:	08000265 	stmdaeq	r0, {r0, r2, r5, r6, r9}
	...
 800002c:	08000265 	stmdaeq	r0, {r0, r2, r5, r6, r9}
 8000030:	08000265 	stmdaeq	r0, {r0, r2, r5, r6, r9}
 8000034:	00000000 	andeq	r0, r0, r0
 8000038:	08000265 	stmdaeq	r0, {r0, r2, r5, r6, r9}
 800003c:	08000265 	stmdaeq	r0, {r0, r2, r5, r6, r9}
 8000040:	08000265 	stmdaeq	r0, {r0, r2, r5, r6, r9}
 8000044:	08000265 	stmdaeq	r0, {r0, r2, r5, r6, r9}
 8000048:	08000265 	stmdaeq	r0, {r0, r2, r5, r6, r9}
 800004c:	08000265 	stmdaeq	r0, {r0, r2, r5, r6, r9}
 8000050:	08000265 	stmdaeq	r0, {r0, r2, r5, r6, r9}
 8000054:	08000265 	stmdaeq	r0, {r0, r2, r5, r6, r9}
 8000058:	08000269 	stmdaeq	r0, {r0, r3, r5, r6, r9}
 800005c:	0800028d 	stmdaeq	r0, {r0, r2, r3, r7, r9}
 8000060:	080002b1 	stmdaeq	r0, {r0, r4, r5, r7, r9}
 8000064:	080002d5 	stmdaeq	r0, {r0, r2, r4, r6, r7, r9}
 8000068:	080002f9 	stmdaeq	r0, {r0, r3, r4, r5, r6, r7, r9}
 800006c:	08000265 	stmdaeq	r0, {r0, r2, r5, r6, r9}
 8000070:	08000265 	stmdaeq	r0, {r0, r2, r5, r6, r9}
 8000074:	08000265 	stmdaeq	r0, {r0, r2, r5, r6, r9}
 8000078:	08000265 	stmdaeq	r0, {r0, r2, r5, r6, r9}
 800007c:	08000265 	stmdaeq	r0, {r0, r2, r5, r6, r9}
 8000080:	08000265 	stmdaeq	r0, {r0, r2, r5, r6, r9}
 8000084:	08000265 	stmdaeq	r0, {r0, r2, r5, r6, r9}
 8000088:	08000265 	stmdaeq	r0, {r0, r2, r5, r6, r9}
 800008c:	08000265 	stmdaeq	r0, {r0, r2, r5, r6, r9}
 8000090:	08000265 	stmdaeq	r0, {r0, r2, r5, r6, r9}
 8000094:	08000265 	stmdaeq	r0, {r0, r2, r5, r6, r9}
 8000098:	08000265 	stmdaeq	r0, {r0, r2, r5, r6, r9}
 800009c:	0800031d 	stmdaeq	r0, {r0, r2, r3, r4, r8, r9}
 80000a0:	08000265 	stmdaeq	r0, {r0, r2, r5, r6, r9}
 80000a4:	08000265 	stmdaeq	r0, {r0, r2, r5, r6, r9}
 80000a8:	08000265 	stmdaeq	r0, {r0, r2, r5, r6, r9}
 80000ac:	08000265 	stmdaeq	r0, {r0, r2, r5, r6, r9}
 80000b0:	08000265 	stmdaeq	r0, {r0, r2, r5, r6, r9}
 80000b4:	08000265 	stmdaeq	r0, {r0, r2, r5, r6, r9}
 80000b8:	08000265 	stmdaeq	r0, {r0, r2, r5, r6, r9}
 80000bc:	08000265 	stmdaeq	r0, {r0, r2, r5, r6, r9}
 80000c0:	08000265 	stmdaeq	r0, {r0, r2, r5, r6, r9}
 80000c4:	08000265 	stmdaeq	r0, {r0, r2, r5, r6, r9}
 80000c8:	08000265 	stmdaeq	r0, {r0, r2, r5, r6, r9}
 80000cc:	08000489 	stmdaeq	r0, {r0, r3, r7, sl}
 80000d0:	080004a5 	stmdaeq	r0, {r0, r2, r5, r7, sl}
 80000d4:	080004c1 	stmdaeq	r0, {r0, r6, r7, sl}
 80000d8:	080004d5 	stmdaeq	r0, {r0, r2, r4, r6, r7, sl}
 80000dc:	080004e9 	stmdaeq	r0, {r0, r3, r5, r6, r7, sl}
 80000e0:	080003c5 	stmdaeq	r0, {r0, r2, r6, r7, r8, r9}
 80000e4:	08000265 	stmdaeq	r0, {r0, r2, r5, r6, r9}
 80000e8:	00000000 	andeq	r0, r0, r0
 80000ec:	08000265 	stmdaeq	r0, {r0, r2, r5, r6, r9}
 80000f0:	08000265 	stmdaeq	r0, {r0, r2, r5, r6, r9}
 80000f4:	08000265 	stmdaeq	r0, {r0, r2, r5, r6, r9}
 80000f8:	08000265 	stmdaeq	r0, {r0, r2, r5, r6, r9}
 80000fc:	08000265 	stmdaeq	r0, {r0, r2, r5, r6, r9}
 8000100:	08000265 	stmdaeq	r0, {r0, r2, r5, r6, r9}
 8000104:	08000265 	stmdaeq	r0, {r0, r2, r5, r6, r9}
 8000108:	08000265 	stmdaeq	r0, {r0, r2, r5, r6, r9}
 800010c:	08000265 	stmdaeq	r0, {r0, r2, r5, r6, r9}
 8000110:	08000265 	stmdaeq	r0, {r0, r2, r5, r6, r9}
 8000114:	08000265 	stmdaeq	r0, {r0, r2, r5, r6, r9}
 8000118:	08000265 	stmdaeq	r0, {r0, r2, r5, r6, r9}
 800011c:	08000265 	stmdaeq	r0, {r0, r2, r5, r6, r9}
 8000120:	08000265 	stmdaeq	r0, {r0, r2, r5, r6, r9}
 8000124:	08000265 	stmdaeq	r0, {r0, r2, r5, r6, r9}
 8000128:	08000265 	stmdaeq	r0, {r0, r2, r5, r6, r9}
 800012c:	08000265 	stmdaeq	r0, {r0, r2, r5, r6, r9}

Disassembly of section .text:

08000130 <__do_global_dtors_aux>:
 8000130:	b510      	push	{r4, lr}
 8000132:	4c05      	ldr	r4, [pc, #20]	; (8000148 <__do_global_dtors_aux+0x18>)
 8000134:	7823      	ldrb	r3, [r4, #0]
 8000136:	b933      	cbnz	r3, 8000146 <__do_global_dtors_aux+0x16>
 8000138:	4b04      	ldr	r3, [pc, #16]	; (800014c <__do_global_dtors_aux+0x1c>)
 800013a:	b113      	cbz	r3, 8000142 <__do_global_dtors_aux+0x12>
 800013c:	4804      	ldr	r0, [pc, #16]	; (8000150 <__do_global_dtors_aux+0x20>)
 800013e:	f3af 8000 	nop.w
 8000142:	2301      	movs	r3, #1
 8000144:	7023      	strb	r3, [r4, #0]
 8000146:	bd10      	pop	{r4, pc}
 8000148:	20000000 	andcs	r0, r0, r0
 800014c:	00000000 	andeq	r0, r0, r0
 8000150:	08000544 	stmdaeq	r0, {r2, r6, r8, sl}

08000154 <frame_dummy>:
 8000154:	b508      	push	{r3, lr}
 8000156:	4b03      	ldr	r3, [pc, #12]	; (8000164 <frame_dummy+0x10>)
 8000158:	b11b      	cbz	r3, 8000162 <frame_dummy+0xe>
 800015a:	4903      	ldr	r1, [pc, #12]	; (8000168 <frame_dummy+0x14>)
 800015c:	4803      	ldr	r0, [pc, #12]	; (800016c <frame_dummy+0x18>)
 800015e:	f3af 8000 	nop.w
 8000162:	bd08      	pop	{r3, pc}
 8000164:	00000000 	andeq	r0, r0, r0
 8000168:	20000004 	andcs	r0, r0, r4
 800016c:	08000544 	stmdaeq	r0, {r2, r6, r8, sl}

08000170 <EXTI9_CALLBACK>:
 8000170:	b480      	push	{r7}
 8000172:	af00      	add	r7, sp, #0
 8000174:	4b08      	ldr	r3, [pc, #32]	; (8000198 <EXTI9_CALLBACK+0x28>)
 8000176:	2201      	movs	r2, #1
 8000178:	701a      	strb	r2, [r3, #0]
 800017a:	bf00      	nop
 800017c:	bf00      	nop
 800017e:	bf00      	nop
 8000180:	f3ef 8305 	mrs	r3, IPSR
 8000184:	4a05      	ldr	r2, [pc, #20]	; (800019c <EXTI9_CALLBACK+0x2c>)
 8000186:	6013      	str	r3, [r2, #0]
 8000188:	bf00      	nop
 800018a:	bf00      	nop
 800018c:	bf00      	nop
 800018e:	bf00      	nop
 8000190:	46bd      	mov	sp, r7
 8000192:	bc80      	pop	{r7}
 8000194:	4770      	bx	lr
 8000196:	bf00      	nop
 8000198:	20000024 	andcs	r0, r0, r4, lsr #32
 800019c:	20000020 	andcs	r0, r0, r0, lsr #32

080001a0 <main>:
 80001a0:	b480      	push	{r7}
 80001a2:	b087      	sub	sp, #28
 80001a4:	af00      	add	r7, sp, #0
 80001a6:	4b16      	ldr	r3, [pc, #88]	; (8000200 <main+0x60>)
 80001a8:	699b      	ldr	r3, [r3, #24]
 80001aa:	4a15      	ldr	r2, [pc, #84]	; (8000200 <main+0x60>)
 80001ac:	f043 0308 	orr.w	r3, r3, #8
 80001b0:	6193      	str	r3, [r2, #24]
 80001b2:	4b13      	ldr	r3, [pc, #76]	; (8000200 <main+0x60>)
 80001b4:	699b      	ldr	r3, [r3, #24]
 80001b6:	4a12      	ldr	r2, [pc, #72]	; (8000200 <main+0x60>)
 80001b8:	f043 0301 	orr.w	r3, r3, #1
 80001bc:	6193      	str	r3, [r2, #24]
 80001be:	4a11      	ldr	r2, [pc, #68]	; (8000204 <main+0x64>)
 80001c0:	1d3b      	adds	r3, r7, #4
 80001c2:	ca07      	ldmia	r2, {r0, r1, r2}
 80001c4:	e883 0007 	stmia.w	r3, {r0, r1, r2}
 80001c8:	2300      	movs	r3, #0
 80001ca:	743b      	strb	r3, [r7, #16]
 80001cc:	4b0e      	ldr	r3, [pc, #56]	; (8000208 <main+0x68>)
 80001ce:	617b      	str	r3, [r7, #20]
 80001d0:	2301      	movs	r3, #1
 80001d2:	747b      	strb	r3, [r7, #17]
 80001d4:	4b0d      	ldr	r3, [pc, #52]	; (800020c <main+0x6c>)
 80001d6:	2201      	movs	r2, #1
 80001d8:	701a      	strb	r2, [r3, #0]
 80001da:	bf00      	nop
 80001dc:	bf00      	nop
 80001de:	bf00      	nop
 80001e0:	f3ef 8314 	mrs	r3, CONTROL
 80001e4:	4a0a      	ldr	r2, [pc, #40]	; (8000210 <main+0x70>)
 80001e6:	6013      	str	r3, [r2, #0]
 80001e8:	bf00      	nop
 80001ea:	bf00      	nop
 80001ec:	bf00      	nop
 80001ee:	4b07      	ldr	r3, [pc, #28]	; (800020c <main+0x6c>)
 80001f0:	781b      	ldrb	r3, [r3, #0]
 80001f2:	2b00      	cmp	r3, #0
 80001f4:	d0fb      	beq.n	80001ee <main+0x4e>
 80001f6:	4b05      	ldr	r3, [pc, #20]	; (800020c <main+0x6c>)
 80001f8:	2200      	movs	r2, #0
 80001fa:	701a      	strb	r2, [r3, #0]
 80001fc:	e7f7      	b.n	80001ee <main+0x4e>
 80001fe:	bf00      	nop
 8000200:	40021000 	andmi	r1, r2, r0
 8000204:	0800055c 	stmdaeq	r0, {r2, r3, r4, r6, r8, sl}
 8000208:	08000171 	stmdaeq	r0, {r0, r4, r5, r6, r8}
 800020c:	20000024 	andcs	r0, r0, r4, lsr #32
 8000210:	2000001c 	andcs	r0, r0, ip, lsl r0

08000214 <Reset_Handler>:
 8000214:	480d      	ldr	r0, [pc, #52]	; (800024c <LoopForever+0x2>)
 8000216:	4685      	mov	sp, r0
 8000218:	f3af 8000 	nop.w
 800021c:	480c      	ldr	r0, [pc, #48]	; (8000250 <LoopForever+0x6>)
 800021e:	490d      	ldr	r1, [pc, #52]	; (8000254 <LoopForever+0xa>)
 8000220:	4a0d      	ldr	r2, [pc, #52]	; (8000258 <LoopForever+0xe>)
 8000222:	2300      	movs	r3, #0
 8000224:	e002      	b.n	800022c <LoopCopyDataInit>

08000226 <CopyDataInit>:
 8000226:	58d4      	ldr	r4, [r2, r3]
 8000228:	50c4      	str	r4, [r0, r3]
 800022a:	3304      	adds	r3, #4

0800022c <LoopCopyDataInit>:
 800022c:	18c4      	adds	r4, r0, r3
 800022e:	428c      	cmp	r4, r1
 8000230:	d3f9      	bcc.n	8000226 <CopyDataInit>
 8000232:	4a0a      	ldr	r2, [pc, #40]	; (800025c <LoopForever+0x12>)
 8000234:	4c0a      	ldr	r4, [pc, #40]	; (8000260 <LoopForever+0x16>)
 8000236:	2300      	movs	r3, #0
 8000238:	e001      	b.n	800023e <LoopFillZerobss>

0800023a <FillZerobss>:
 800023a:	6013      	str	r3, [r2, #0]
 800023c:	3204      	adds	r2, #4

0800023e <LoopFillZerobss>:
 800023e:	42a2      	cmp	r2, r4
 8000240:	d3fb      	bcc.n	800023a <FillZerobss>
 8000242:	f000 f95b 	bl	80004fc <__libc_init_array>
 8000246:	f7ff ffab 	bl	80001a0 <main>

0800024a <LoopForever>:
 800024a:	e7fe      	b.n	800024a <LoopForever>
 800024c:	20002800 	andcs	r2, r0, r0, lsl #16
 8000250:	20000000 	andcs	r0, r0, r0
 8000254:	20000000 	andcs	r0, r0, r0
 8000258:	08000570 	stmdaeq	r0, {r4, r5, r6, r8, sl}
 800025c:	20000000 	andcs	r0, r0, r0
 8000260:	20000070 	andcs	r0, r0, r0, ror r0

08000264 <ADC1_2_IRQHandler>:
 8000264:	e7fe      	b.n	8000264 <ADC1_2_IRQHandler>
	...

08000268 <EXTI0_IRQHandler>:
 8000268:	b580      	push	{r7, lr}
 800026a:	af00      	add	r7, sp, #0
 800026c:	4b05      	ldr	r3, [pc, #20]	; (8000284 <EXTI0_IRQHandler+0x1c>)
 800026e:	695b      	ldr	r3, [r3, #20]
 8000270:	4a04      	ldr	r2, [pc, #16]	; (8000284 <EXTI0_IRQHandler+0x1c>)
 8000272:	f043 0301 	orr.w	r3, r3, #1
 8000276:	6153      	str	r3, [r2, #20]
 8000278:	4b03      	ldr	r3, [pc, #12]	; (8000288 <EXTI0_IRQHandler+0x20>)
 800027a:	681b      	ldr	r3, [r3, #0]
 800027c:	4798      	blx	r3
 800027e:	bf00      	nop
 8000280:	bd80      	pop	{r7, pc}
 8000282:	bf00      	nop
 8000284:	40010400 	andmi	r0, r1, r0, lsl #8
 8000288:	20000034 	andcs	r0, r0, r4, lsr r0

0800028c <EXTI1_IRQHandler>:
 800028c:	b580      	push	{r7, lr}
 800028e:	af00      	add	r7, sp, #0
 8000290:	4b05      	ldr	r3, [pc, #20]	; (80002a8 <EXTI1_IRQHandler+0x1c>)
 8000292:	695b      	ldr	r3, [r3, #20]
 8000294:	4a04      	ldr	r2, [pc, #16]	; (80002a8 <EXTI1_IRQHandler+0x1c>)
 8000296:	f043 0302 	orr.w	r3, r3, #2
 800029a:	6153      	str	r3, [r2, #20]
 800029c:	4b03      	ldr	r3, [pc, #12]	; (80002ac <EXTI1_IRQHandler+0x20>)
 800029e:	685b      	ldr	r3, [r3, #4]
 80002a0:	4798      	blx	r3
 80002a2:	bf00      	nop
 80002a4:	bd80      	pop	{r7, pc}
 80002a6:	bf00      	nop
 80002a8:	40010400 	andmi	r0, r1, r0, lsl #8
 80002ac:	20000034 	andcs	r0, r0, r4, lsr r0

080002b0 <EXTI2_IRQHandler>:
 80002b0:	b580      	push	{r7, lr}
 80002b2:	af00      	add	r7, sp, #0
 80002b4:	4b05      	ldr	r3, [pc, #20]	; (80002cc <EXTI2_IRQHandler+0x1c>)
 80002b6:	695b      	ldr	r3, [r3, #20]
 80002b8:	4a04      	ldr	r2, [pc, #16]	; (80002cc <EXTI2_IRQHandler+0x1c>)
 80002ba:	f043 0304 	orr.w	r3, r3, #4
 80002be:	6153      	str	r3, [r2, #20]
 80002c0:	4b03      	ldr	r3, [pc, #12]	; (80002d0 <EXTI2_IRQHandler+0x20>)
 80002c2:	689b      	ldr	r3, [r3, #8]
 80002c4:	4798      	blx	r3
 80002c6:	bf00      	nop
 80002c8:	bd80      	pop	{r7, pc}
 80002ca:	bf00      	nop
 80002cc:	40010400 	andmi	r0, r1, r0, lsl #8
 80002d0:	20000034 	andcs	r0, r0, r4, lsr r0

080002d4 <EXTI3_IRQHandler>:
 80002d4:	b580      	push	{r7, lr}
 80002d6:	af00      	add	r7, sp, #0
 80002d8:	4b05      	ldr	r3, [pc, #20]	; (80002f0 <EXTI3_IRQHandler+0x1c>)
 80002da:	695b      	ldr	r3, [r3, #20]
 80002dc:	4a04      	ldr	r2, [pc, #16]	; (80002f0 <EXTI3_IRQHandler+0x1c>)
 80002de:	f043 0308 	orr.w	r3, r3, #8
 80002e2:	6153      	str	r3, [r2, #20]
 80002e4:	4b03      	ldr	r3, [pc, #12]	; (80002f4 <EXTI3_IRQHandler+0x20>)
 80002e6:	68db      	ldr	r3, [r3, #12]
 80002e8:	4798      	blx	r3
 80002ea:	bf00      	nop
 80002ec:	bd80      	pop	{r7, pc}
 80002ee:	bf00      	nop
 80002f0:	40010400 	andmi	r0, r1, r0, lsl #8
 80002f4:	20000034 	andcs	r0, r0, r4, lsr r0

080002f8 <EXTI4_IRQHandler>:
 80002f8:	b580      	push	{r7, lr}
 80002fa:	af00      	add	r7, sp, #0
 80002fc:	4b05      	ldr	r3, [pc, #20]	; (8000314 <EXTI4_IRQHandler+0x1c>)
 80002fe:	695b      	ldr	r3, [r3, #20]
 8000300:	4a04      	ldr	r2, [pc, #16]	; (8000314 <EXTI4_IRQHandler+0x1c>)
 8000302:	f043 0310 	orr.w	r3, r3, #16
 8000306:	6153      	str	r3, [r2, #20]
 8000308:	4b03      	ldr	r3, [pc, #12]	; (8000318 <EXTI4_IRQHandler+0x20>)
 800030a:	691b      	ldr	r3, [r3, #16]
 800030c:	4798      	blx	r3
 800030e:	bf00      	nop
 8000310:	bd80      	pop	{r7, pc}
 8000312:	bf00      	nop
 8000314:	40010400 	andmi	r0, r1, r0, lsl #8
 8000318:	20000034 	andcs	r0, r0, r4, lsr r0

0800031c <EXTI9_5_IRQHandler>:
 800031c:	b580      	push	{r7, lr}
 800031e:	af00      	add	r7, sp, #0
 8000320:	4b26      	ldr	r3, [pc, #152]	; (80003bc <EXTI9_5_IRQHandler+0xa0>)
 8000322:	695b      	ldr	r3, [r3, #20]
 8000324:	f003 0320 	and.w	r3, r3, #32
 8000328:	2b00      	cmp	r3, #0
 800032a:	d008      	beq.n	800033e <EXTI9_5_IRQHandler+0x22>
 800032c:	4b23      	ldr	r3, [pc, #140]	; (80003bc <EXTI9_5_IRQHandler+0xa0>)
 800032e:	695b      	ldr	r3, [r3, #20]
 8000330:	4a22      	ldr	r2, [pc, #136]	; (80003bc <EXTI9_5_IRQHandler+0xa0>)
 8000332:	f043 0320 	orr.w	r3, r3, #32
 8000336:	6153      	str	r3, [r2, #20]
 8000338:	4b21      	ldr	r3, [pc, #132]	; (80003c0 <EXTI9_5_IRQHandler+0xa4>)
 800033a:	695b      	ldr	r3, [r3, #20]
 800033c:	4798      	blx	r3
 800033e:	4b1f      	ldr	r3, [pc, #124]	; (80003bc <EXTI9_5_IRQHandler+0xa0>)
 8000340:	695b      	ldr	r3, [r3, #20]
 8000342:	f003 0340 	and.w	r3, r3, #64	; 0x40
 8000346:	2b00      	cmp	r3, #0
 8000348:	d008      	beq.n	800035c <EXTI9_5_IRQHandler+0x40>
 800034a:	4b1c      	ldr	r3, [pc, #112]	; (80003bc <EXTI9_5_IRQHandler+0xa0>)
 800034c:	695b      	ldr	r3, [r3, #20]
 800034e:	4a1b      	ldr	r2, [pc, #108]	; (80003bc <EXTI9_5_IRQHandler+0xa0>)
 8000350:	f043 0340 	orr.w	r3, r3, #64	; 0x40
 8000354:	6153      	str	r3, [r2, #20]
 8000356:	4b1a      	ldr	r3, [pc, #104]	; (80003c0 <EXTI9_5_IRQHandler+0xa4>)
 8000358:	699b      	ldr	r3, [r3, #24]
 800035a:	4798      	blx	r3
 800035c:	4b17      	ldr	r3, [pc, #92]	; (80003bc <EXTI9_5_IRQHandler+0xa0>)
 800035e:	695b      	ldr	r3, [r3, #20]
 8000360:	f003 0380 	and.w	r3, r3, #128	; 0x80
 8000364:	2b00      	cmp	r3, #0
 8000366:	d008      	beq.n	800037a <EXTI9_5_IRQHandler+0x5e>
 8000368:	4b14      	ldr	r3, [pc, #80]	; (80003bc <EXTI9_5_IRQHandler+0xa0>)
 800036a:	695b      	ldr	r3, [r3, #20]
 800036c:	4a13      	ldr	r2, [pc, #76]	; (80003bc <EXTI9_5_IRQHandler+0xa0>)
 800036e:	f043 0380 	orr.w	r3, r3, #128	; 0x80
 8000372:	6153      	str	r3, [r2, #20]
 8000374:	4b12      	ldr	r3, [pc, #72]	; (80003c0 <EXTI9_5_IRQHandler+0xa4>)
 8000376:	69db      	ldr	r3, [r3, #28]
 8000378:	4798      	blx	r3
 800037a:	4b10      	ldr	r3, [pc, #64]	; (80003bc <EXTI9_5_IRQHandler+0xa0>)
 800037c:	695b      	ldr	r3, [r3, #20]
 800037e:	f403 7380 	and.w	r3, r3, #256	; 0x100
 8000382:	2b00      	cmp	r3, #0
 8000384:	d008      	beq.n	8000398 <EXTI9_5_IRQHandler+0x7c>
 8000386:	4b0d      	ldr	r3, [pc, #52]	; (80003bc <EXTI9_5_IRQHandler+0xa0>)
 8000388:	695b      	ldr	r3, [r3, #20]
 800038a:	4a0c      	ldr	r2, [pc, #48]	; (80003bc <EXTI9_5_IRQHandler+0xa0>)
 800038c:	f443 7380 	orr.w	r3, r3, #256	; 0x100
 8000390:	6153      	str	r3, [r2, #20]
 8000392:	4b0b      	ldr	r3, [pc, #44]	; (80003c0 <EXTI9_5_IRQHandler+0xa4>)
 8000394:	6a1b      	ldr	r3, [r3, #32]
 8000396:	4798      	blx	r3
 8000398:	4b08      	ldr	r3, [pc, #32]	; (80003bc <EXTI9_5_IRQHandler+0xa0>)
 800039a:	695b      	ldr	r3, [r3, #20]
 800039c:	f403 7300 	and.w	r3, r3, #512	; 0x200
 80003a0:	2b00      	cmp	r3, #0
 80003a2:	d008      	beq.n	80003b6 <EXTI9_5_IRQHandler+0x9a>
 80003a4:	4b05      	ldr	r3, [pc, #20]	; (80003bc <EXTI9_5_IRQHandler+0xa0>)
 80003a6:	695b      	ldr	r3, [r3, #20]
 80003a8:	4a04      	ldr	r2, [pc, #16]	; (80003bc <EXTI9_5_IRQHandler+0xa0>)
 80003aa:	f443 7300 	orr.w	r3, r3, #512	; 0x200
 80003ae:	6153      	str	r3, [r2, #20]
 80003b0:	4b03      	ldr	r3, [pc, #12]	; (80003c0 <EXTI9_5_IRQHandler+0xa4>)
 80003b2:	6a5b      	ldr	r3, [r3, #36]	; 0x24
 80003b4:	4798      	blx	r3
 80003b6:	bf00      	nop
 80003b8:	bd80      	pop	{r7, pc}
 80003ba:	bf00      	nop
 80003bc:	40010400 	andmi	r0, r1, r0, lsl #8
 80003c0:	20000034 	andcs	r0, r0, r4, lsr r0

080003c4 <EXTI15_10_IRQHandler>:
 80003c4:	b580      	push	{r7, lr}
 80003c6:	af00      	add	r7, sp, #0
 80003c8:	4b2d      	ldr	r3, [pc, #180]	; (8000480 <EXTI15_10_IRQHandler+0xbc>)
 80003ca:	695b      	ldr	r3, [r3, #20]
 80003cc:	f403 6380 	and.w	r3, r3, #1024	; 0x400
 80003d0:	2b00      	cmp	r3, #0
 80003d2:	d008      	beq.n	80003e6 <EXTI15_10_IRQHandler+0x22>
 80003d4:	4b2a      	ldr	r3, [pc, #168]	; (8000480 <EXTI15_10_IRQHandler+0xbc>)
 80003d6:	695b      	ldr	r3, [r3, #20]
 80003d8:	4a29      	ldr	r2, [pc, #164]	; (8000480 <EXTI15_10_IRQHandler+0xbc>)
 80003da:	f443 6380 	orr.w	r3, r3, #1024	; 0x400
 80003de:	6153      	str	r3, [r2, #20]
 80003e0:	4b28      	ldr	r3, [pc, #160]	; (8000484 <EXTI15_10_IRQHandler+0xc0>)
 80003e2:	6a9b      	ldr	r3, [r3, #40]	; 0x28
 80003e4:	4798      	blx	r3
 80003e6:	4b26      	ldr	r3, [pc, #152]	; (8000480 <EXTI15_10_IRQHandler+0xbc>)
 80003e8:	695b      	ldr	r3, [r3, #20]
 80003ea:	f403 6300 	and.w	r3, r3, #2048	; 0x800
 80003ee:	2b00      	cmp	r3, #0
 80003f0:	d008      	beq.n	8000404 <EXTI15_10_IRQHandler+0x40>
 80003f2:	4b23      	ldr	r3, [pc, #140]	; (8000480 <EXTI15_10_IRQHandler+0xbc>)
 80003f4:	695b      	ldr	r3, [r3, #20]
 80003f6:	4a22      	ldr	r2, [pc, #136]	; (8000480 <EXTI15_10_IRQHandler+0xbc>)
 80003f8:	f443 6300 	orr.w	r3, r3, #2048	; 0x800
 80003fc:	6153      	str	r3, [r2, #20]
 80003fe:	4b21      	ldr	r3, [pc, #132]	; (8000484 <EXTI15_10_IRQHandler+0xc0>)
 8000400:	6adb      	ldr	r3, [r3, #44]	; 0x2c
 8000402:	4798      	blx	r3
 8000404:	4b1e      	ldr	r3, [pc, #120]	; (8000480 <EXTI15_10_IRQHandler+0xbc>)
 8000406:	695b      	ldr	r3, [r3, #20]
 8000408:	f403 5380 	and.w	r3, r3, #4096	; 0x1000
 800040c:	2b00      	cmp	r3, #0
 800040e:	d008      	beq.n	8000422 <EXTI15_10_IRQHandler+0x5e>
 8000410:	4b1b      	ldr	r3, [pc, #108]	; (8000480 <EXTI15_10_IRQHandler+0xbc>)
 8000412:	695b      	ldr	r3, [r3, #20]
 8000414:	4a1a      	ldr	r2, [pc, #104]	; (8000480 <EXTI15_10_IRQHandler+0xbc>)
 8000416:	f443 5380 	orr.w	r3, r3, #4096	; 0x1000
 800041a:	6153      	str	r3, [r2, #20]
 800041c:	4b19      	ldr	r3, [pc, #100]	; (8000484 <EXTI15_10_IRQHandler+0xc0>)
 800041e:	6b1b      	ldr	r3, [r3, #48]	; 0x30
 8000420:	4798      	blx	r3
 8000422:	4b17      	ldr	r3, [pc, #92]	; (8000480 <EXTI15_10_IRQHandler+0xbc>)
 8000424:	695b      	ldr	r3, [r3, #20]
 8000426:	f403 5300 	and.w	r3, r3, #8192	; 0x2000
 800042a:	2b00      	cmp	r3, #0
 800042c:	d008      	beq.n	8000440 <EXTI15_10_IRQHandler+0x7c>
 800042e:	4b14      	ldr	r3, [pc, #80]	; (8000480 <EXTI15_10_IRQHandler+0xbc>)
 8000430:	695b      	ldr	r3, [r3, #20]
 8000432:	4a13      	ldr	r2, [pc, #76]	; (8000480 <EXTI15_10_IRQHandler+0xbc>)
 8000434:	f443 5300 	orr.w	r3, r3, #8192	; 0x2000
 8000438:	6153      	str	r3, [r2, #20]
 800043a:	4b12      	ldr	r3, [pc, #72]	; (8000484 <EXTI15_10_IRQHandler+0xc0>)
 800043c:	6b5b      	ldr	r3, [r3, #52]	; 0x34
 800043e:	4798      	blx	r3
 8000440:	4b0f      	ldr	r3, [pc, #60]	; (8000480 <EXTI15_10_IRQHandler+0xbc>)
 8000442:	695b      	ldr	r3, [r3, #20]
 8000444:	f403 4380 	and.w	r3, r3, #16384	; 0x4000
 8000448:	2b00      	cmp	r3, #0
 800044a:	d008      	beq.n	800045e <EXTI15_10_IRQHandler+0x9a>
 800044c:	4b0c      	ldr	r3, [pc, #48]	; (8000480 <EXTI15_10_IRQHandler+0xbc>)
 800044e:	695b      	ldr	r3, [r3, #20]
 8000450:	4a0b      	ldr	r2, [pc, #44]	; (8000480 <EXTI15_10_IRQHandler+0xbc>)
 8000452:	f443 4380 	orr.w	r3, r3, #16384	; 0x4000
 8000456:	6153      	str	r3, [r2, #20]
 8000458:	4b0a      	ldr	r3, [pc, #40]	; (8000484 <EXTI15_10_IRQHandler+0xc0>)
 800045a:	6b9b      	ldr	r3, [r3, #56]	; 0x38
 800045c:	4798      	blx	r3
 800045e:	4b08      	ldr	r3, [pc, #32]	; (8000480 <EXTI15_10_IRQHandler+0xbc>)
 8000460:	695b      	ldr	r3, [r3, #20]
 8000462:	f403 4300 	and.w	r3, r3, #32768	; 0x8000
 8000466:	2b00      	cmp	r3, #0
 8000468:	d008      	beq.n	800047c <EXTI15_10_IRQHandler+0xb8>
 800046a:	4b05      	ldr	r3, [pc, #20]	; (8000480 <EXTI15_10_IRQHandler+0xbc>)
 800046c:	695b      	ldr	r3, [r3, #20]
 800046e:	4a04      	ldr	r2, [pc, #16]	; (8000480 <EXTI15_10_IRQHandler+0xbc>)
 8000470:	f443 4300 	orr.w	r3, r3, #32768	; 0x8000
 8000474:	6153      	str	r3, [r2, #20]
 8000476:	4b03      	ldr	r3, [pc, #12]	; (8000484 <EXTI15_10_IRQHandler+0xc0>)
 8000478:	6bdb      	ldr	r3, [r3, #60]	; 0x3c
 800047a:	4798      	blx	r3
 800047c:	bf00      	nop
 800047e:	bd80      	pop	{r7, pc}
 8000480:	40010400 	andmi	r0, r1, r0, lsl #8
 8000484:	20000034 	andcs	r0, r0, r4, lsr r0

08000488 <SPI1_IRQHandler>:
 8000488:	b580      	push	{r7, lr}
 800048a:	b082      	sub	sp, #8
 800048c:	af00      	add	r7, sp, #0
 800048e:	4b04      	ldr	r3, [pc, #16]	; (80004a0 <SPI1_IRQHandler+0x18>)
 8000490:	681b      	ldr	r3, [r3, #0]
 8000492:	695b      	ldr	r3, [r3, #20]
 8000494:	7938      	ldrb	r0, [r7, #4]
 8000496:	4798      	blx	r3
 8000498:	bf00      	nop
 800049a:	3708      	adds	r7, #8
 800049c:	46bd      	mov	sp, r7
 800049e:	bd80      	pop	{r7, pc}
 80004a0:	20000028 	andcs	r0, r0, r8, lsr #32

080004a4 <SPI2_IRQHandler>:
 80004a4:	b580      	push	{r7, lr}
 80004a6:	b082      	sub	sp, #8
 80004a8:	af00      	add	r7, sp, #0
 80004aa:	4b04      	ldr	r3, [pc, #16]	; (80004bc <SPI2_IRQHandler+0x18>)
 80004ac:	685b      	ldr	r3, [r3, #4]
 80004ae:	695b      	ldr	r3, [r3, #20]
 80004b0:	7938      	ldrb	r0, [r7, #4]
 80004b2:	4798      	blx	r3
 80004b4:	bf00      	nop
 80004b6:	3708      	adds	r7, #8
 80004b8:	46bd      	mov	sp, r7
 80004ba:	bd80      	pop	{r7, pc}
 80004bc:	20000028 	andcs	r0, r0, r8, lsr #32

080004c0 <USART1_IRQHandler>:
 80004c0:	b580      	push	{r7, lr}
 80004c2:	af00      	add	r7, sp, #0
 80004c4:	4b02      	ldr	r3, [pc, #8]	; (80004d0 <USART1_IRQHandler+0x10>)
 80004c6:	681b      	ldr	r3, [r3, #0]
 80004c8:	691b      	ldr	r3, [r3, #16]
 80004ca:	4798      	blx	r3
 80004cc:	bf00      	nop
 80004ce:	bd80      	pop	{r7, pc}
 80004d0:	20000030 	andcs	r0, r0, r0, lsr r0

080004d4 <USART2_IRQHandler>:
 80004d4:	b580      	push	{r7, lr}
 80004d6:	af00      	add	r7, sp, #0
 80004d8:	4b02      	ldr	r3, [pc, #8]	; (80004e4 <USART2_IRQHandler+0x10>)
 80004da:	681b      	ldr	r3, [r3, #0]
 80004dc:	691b      	ldr	r3, [r3, #16]
 80004de:	4798      	blx	r3
 80004e0:	bf00      	nop
 80004e2:	bd80      	pop	{r7, pc}
 80004e4:	20000030 	andcs	r0, r0, r0, lsr r0

080004e8 <USART3_IRQHandler>:
 80004e8:	b580      	push	{r7, lr}
 80004ea:	af00      	add	r7, sp, #0
 80004ec:	4b02      	ldr	r3, [pc, #8]	; (80004f8 <USART3_IRQHandler+0x10>)
 80004ee:	681b      	ldr	r3, [r3, #0]
 80004f0:	691b      	ldr	r3, [r3, #16]
 80004f2:	4798      	blx	r3
 80004f4:	bf00      	nop
 80004f6:	bd80      	pop	{r7, pc}
 80004f8:	20000030 	andcs	r0, r0, r0, lsr r0

080004fc <__libc_init_array>:
 80004fc:	b570      	push	{r4, r5, r6, lr}
 80004fe:	2500      	movs	r5, #0
 8000500:	4e0c      	ldr	r6, [pc, #48]	; (8000534 <__libc_init_array+0x38>)
 8000502:	4c0d      	ldr	r4, [pc, #52]	; (8000538 <__libc_init_array+0x3c>)
 8000504:	1ba4      	subs	r4, r4, r6
 8000506:	10a4      	asrs	r4, r4, #2
 8000508:	42a5      	cmp	r5, r4
 800050a:	d109      	bne.n	8000520 <__libc_init_array+0x24>
 800050c:	f000 f81a 	bl	8000544 <_init>
 8000510:	2500      	movs	r5, #0
 8000512:	4e0a      	ldr	r6, [pc, #40]	; (800053c <__libc_init_array+0x40>)
 8000514:	4c0a      	ldr	r4, [pc, #40]	; (8000540 <__libc_init_array+0x44>)
 8000516:	1ba4      	subs	r4, r4, r6
 8000518:	10a4      	asrs	r4, r4, #2
 800051a:	42a5      	cmp	r5, r4
 800051c:	d105      	bne.n	800052a <__libc_init_array+0x2e>
 800051e:	bd70      	pop	{r4, r5, r6, pc}
 8000520:	f856 3025 	ldr.w	r3, [r6, r5, lsl #2]
 8000524:	4798      	blx	r3
 8000526:	3501      	adds	r5, #1
 8000528:	e7ee      	b.n	8000508 <__libc_init_array+0xc>
 800052a:	f856 3025 	ldr.w	r3, [r6, r5, lsl #2]
 800052e:	4798      	blx	r3
 8000530:	3501      	adds	r5, #1
 8000532:	e7f2      	b.n	800051a <__libc_init_array+0x1e>
 8000534:	08000568 	stmdaeq	r0, {r3, r5, r6, r8, sl}
 8000538:	08000568 	stmdaeq	r0, {r3, r5, r6, r8, sl}
 800053c:	08000568 	stmdaeq	r0, {r3, r5, r6, r8, sl}
 8000540:	0800056c 	stmdaeq	r0, {r2, r3, r5, r6, r8, sl}

08000544 <_init>:
 8000544:	b5f8      	push	{r3, r4, r5, r6, r7, lr}
 8000546:	bf00      	nop
 8000548:	bcf8      	pop	{r3, r4, r5, r6, r7}
 800054a:	bc08      	pop	{r3}
 800054c:	469e      	mov	lr, r3
 800054e:	4770      	bx	lr

08000550 <_fini>:
 8000550:	b5f8      	push	{r3, r4, r5, r6, r7, lr}
 8000552:	bf00      	nop
 8000554:	bcf8      	pop	{r3, r4, r5, r6, r7}
 8000556:	bc08      	pop	{r3}
 8000558:	469e      	mov	lr, r3
 800055a:	4770      	bx	lr
